target datalayout = "e-m:e-p270:32:32-p271:32:32-p272:64:64-i64:64-i128:128-f80:128-n8:16:32:64-S128"
target triple = "x86_64-pc-linux-gnu"

@.str.138 = private unnamed_addr constant [10 x i8] c"FW: %u.%u\00", align 1
@.str.139 = private unnamed_addr constant [22 x i8] c"HW: %u.%u / FW: %u.%u\00", align 1

; Function Attrs: null_pointer_is_valid sspstrong uwtable
define internal void @disp_version(ptr noundef %0, i32 noundef %1) #0 {
  %3 = alloca ptr, align 8
  %4 = alloca i32, align 4
  %5 = alloca i32, align 4
  %6 = alloca i32, align 4
  %7 = alloca i32, align 4
  %8 = alloca i32, align 4
  %9 = alloca i32, align 4
  %10 = alloca i32, align 4
  store ptr %0, ptr %3, align 8
  store i32 %1, ptr %4, align 4
  %11 = load i32, ptr %4, align 4
  %12 = and i32 %11, -16777216
  %13 = icmp eq i32 %12, 0
  br i1 %13, label %14, label %26

14:                                               ; preds = %2
  call void @llvm.lifetime.start.p0(i64 4, ptr %5) #7
  %15 = load i32, ptr %4, align 4
  %16 = lshr i32 %15, 16
  %17 = and i32 %16, 65535
  store i32 %17, ptr %5, align 4
  call void @llvm.lifetime.start.p0(i64 4, ptr %6) #7
  %18 = load i32, ptr %4, align 4
  %19 = and i32 %18, 65535
  store i32 %19, ptr %6, align 4
  %20 = load ptr, ptr %3, align 8
  %21 = load ptr, ptr %3, align 8
  %22 = call i64 @llvm.objectsize.i64.p0(ptr %21, i1 false, i1 true, i1 true)
  %23 = load i32, ptr %5, align 4
  %24 = load i32, ptr %6, align 4
  %25 = call i32 (ptr, i64, i32, i64, ptr, ...) @__snprintf_chk(ptr noundef %20, i64 noundef 240, i32 noundef 2, i64 noundef %22, ptr noundef @.str.138, i32 noundef %23, i32 noundef %24)
  call void @llvm.lifetime.end.p0(i64 4, ptr %6) #7
  call void @llvm.lifetime.end.p0(i64 4, ptr %5) #7
  br label %46

26:                                               ; preds = %2
  call void @llvm.lifetime.start.p0(i64 4, ptr %7) #7
  %27 = load i32, ptr %4, align 4
  %28 = lshr i32 %27, 24
  %29 = and i32 %28, 255
  store i32 %29, ptr %7, align 4
  call void @llvm.lifetime.start.p0(i64 4, ptr %8) #7
  %30 = load i32, ptr %4, align 4
  %31 = lshr i32 %30, 16
  %32 = and i32 %31, 255
  store i32 %32, ptr %8, align 4
  call void @llvm.lifetime.start.p0(i64 4, ptr %9) #7
  %33 = load i32, ptr %4, align 4
  %34 = lshr i32 %33, 8
  %35 = and i32 %34, 255
  store i32 %35, ptr %9, align 4
  call void @llvm.lifetime.start.p0(i64 4, ptr %10) #7
  %36 = load i32, ptr %4, align 4
  %37 = and i32 %36, 255
  store i32 %37, ptr %10, align 4
  %38 = load ptr, ptr %3, align 8
  %39 = load ptr, ptr %3, align 8
  %40 = call i64 @llvm.objectsize.i64.p0(ptr %39, i1 false, i1 true, i1 true)
  %41 = load i32, ptr %7, align 4
  %42 = load i32, ptr %8, align 4
  %43 = load i32, ptr %9, align 4
  %44 = load i32, ptr %10, align 4
  %45 = call i32 (ptr, i64, i32, i64, ptr, ...) @__snprintf_chk(ptr noundef %38, i64 noundef 240, i32 noundef 2, i64 noundef %40, ptr noundef @.str.139, i32 noundef %41, i32 noundef %42, i32 noundef %43, i32 noundef %44)
  call void @llvm.lifetime.end.p0(i64 4, ptr %10) #7
  call void @llvm.lifetime.end.p0(i64 4, ptr %9) #7
  call void @llvm.lifetime.end.p0(i64 4, ptr %8) #7
  call void @llvm.lifetime.end.p0(i64 4, ptr %7) #7
  br label %46

46:                                               ; preds = %26, %14
  ret void
}