; Function Attrs: nofree null_pointer_is_valid sspstrong uwtable
define internal void @disp_version(ptr noundef %0, i32 noundef %1) #4 {
  %3 = icmp ult i32 %1, 16777216
  br i1 %3, label %4, label %8

4:                                                ; preds = %2
  %5 = lshr i32 %1, 16
  %6 = and i32 %1, 65535
  %7 = tail call i32 (ptr, i64, i32, i64, ptr, ...) @__snprintf_chk(ptr noundef %0, i64 noundef 240, i32 noundef 2, i64 noundef -1, ptr noundef nonnull @.str.138, i32 noundef %5, i32 noundef %6)
  br label %16

8:                                                ; preds = %2
  %9 = lshr i32 %1, 24
  %10 = lshr i32 %1, 16
  %11 = and i32 %10, 255
  %12 = lshr i32 %1, 8
  %13 = and i32 %12, 255
  %14 = and i32 %1, 255
  %15 = tail call i32 (ptr, i64, i32, i64, ptr, ...) @__snprintf_chk(ptr noundef %0, i64 noundef 240, i32 noundef 2, i64 noundef -1, ptr noundef nonnull @.str.139, i32 noundef %9, i32 noundef %11, i32 noundef %13, i32 noundef %14)
  br label %16

16:                                               ; preds = %8, %4
  ret void
}